; Function Attrs: mustprogress nounwind uwtable
define internal void @_ZNK4llvm2cl3optIN12_GLOBAL__N_112DefaultOnOffELb0ENS0_6parserIS3_EEE16printOptionValueEmb(ptr noundef nonnull align 8 dereferenceable(600) %0, i64 noundef %1, i1 noundef zeroext %2) unnamed_addr #0 align 2 {
  %4 = alloca %"struct.llvm::cl::OptionValue", align 8
  %.phi.trans.insert = getelementptr inbounds i8, ptr %0, i64 128
  %.val2.pre = load i32, ptr %.phi.trans.insert, align 8
  br i1 %2, label %.critedge, label %5

5:                                                ; preds = %3
  %6 = getelementptr inbounds i8, ptr %0, i64 144
  %.val3 = load i32, ptr %6, align 8
  %7 = getelementptr inbounds i8, ptr %0, i64 148
  %.val4 = load i8, ptr %7, align 4
  %8 = trunc i8 %.val4 to i1
  %9 = icmp eq i32 %.val3, %.val2.pre
  %10 = select i1 %8, i1 %9, i1 false
  br i1 %10, label %15, label %.critedge

.critedge:                                        ; preds = %3, %5
  %11 = getelementptr inbounds nuw i8, ptr %0, i64 152
  %12 = getelementptr inbounds i8, ptr %0, i64 136
  call void @llvm.lifetime.start.p0(i64 16, ptr nonnull %4)
  %13 = getelementptr inbounds nuw i8, ptr %4, i64 12
  store ptr getelementptr inbounds inrange(-16, 16) (i8, ptr @_ZTVN4llvm2cl15OptionValueCopyIN12_GLOBAL__N_112DefaultOnOffEEE, i64 16), ptr %4, align 8
  store i8 1, ptr %13, align 4
  %14 = getelementptr inbounds nuw i8, ptr %4, i64 8
  store i32 %.val2.pre, ptr %14, align 8
  call void @_ZNK4llvm2cl19generic_parser_base22printGenericOptionDiffERKNS0_6OptionERKNS0_18GenericOptionValueES7_m(ptr noundef nonnull align 8 dereferenceable(16) %11, ptr noundef nonnull align 8 dereferenceable(128) %0, ptr noundef nonnull align 8 dereferenceable(8) %4, ptr noundef nonnull align 8 dereferenceable(8) %12, i64 noundef %1) #22
  call void @llvm.lifetime.end.p0(i64 16, ptr nonnull %4)
  br label %15

15:                                               ; preds = %.critedge, %5
  ret void
}